target datalayout = "e-m:e-p270:32:32-p271:32:32-p272:64:64-i64:64-i128:128-f80:128-n8:16:32:64-S128"
target triple = "x86_64-pc-linux-gnu"

%struct._ir_hashtab = type { ptr, i32, i32, i32, i32 }
%struct._ir_hashtab_bucket = type { i32, i32, i32 }

; Function Attrs: nounwind uwtable
define internal i32 @ir_hashtab_hash_size(i32 noundef %0) #0 {
  %2 = alloca i32, align 4
  store i32 %0, ptr %2, align 4
  %3 = load i32, ptr %2, align 4
  %4 = sub i32 %3, 1
  store i32 %4, ptr %2, align 4
  %5 = load i32, ptr %2, align 4
  %6 = lshr i32 %5, 1
  %7 = load i32, ptr %2, align 4
  %8 = or i32 %7, %6
  store i32 %8, ptr %2, align 4
  %9 = load i32, ptr %2, align 4
  %10 = lshr i32 %9, 2
  %11 = load i32, ptr %2, align 4
  %12 = or i32 %11, %10
  store i32 %12, ptr %2, align 4
  %13 = load i32, ptr %2, align 4
  %14 = lshr i32 %13, 4
  %15 = load i32, ptr %2, align 4
  %16 = or i32 %15, %14
  store i32 %16, ptr %2, align 4
  %17 = load i32, ptr %2, align 4
  %18 = lshr i32 %17, 8
  %19 = load i32, ptr %2, align 4
  %20 = or i32 %19, %18
  store i32 %20, ptr %2, align 4
  %21 = load i32, ptr %2, align 4
  %22 = lshr i32 %21, 16
  %23 = load i32, ptr %2, align 4
  %24 = or i32 %23, %22
  store i32 %24, ptr %2, align 4
  %25 = load i32, ptr %2, align 4
  %26 = add i32 %25, 1
  %27 = icmp ugt i32 %26, 4
  br i1 %27, label %28, label %31

28:                                               ; preds = %1
  %29 = load i32, ptr %2, align 4
  %30 = add i32 %29, 1
  br label %32

31:                                               ; preds = %1
  br label %32

32:                                               ; preds = %31, %28
  %33 = phi i32 [ %30, %28 ], [ 4, %31 ]
  ret i32 %33
}

; Function Attrs: nounwind uwtable
define hidden void @ir_hashtab_key_sort(ptr noundef %0) #0 {
  %2 = alloca ptr, align 8
  %3 = alloca ptr, align 8
  %4 = alloca i32, align 4
  %5 = alloca i32, align 4
  %6 = alloca i32, align 4
  %7 = alloca i32, align 4
  store ptr %0, ptr %2, align 8
  %8 = load ptr, ptr %2, align 8
  %9 = getelementptr inbounds %struct._ir_hashtab, ptr %8, i32 0, i32 3
  %10 = load i32, ptr %9, align 8
  %11 = icmp ne i32 %10, 0
  br i1 %11, label %13, label %12

12:                                               ; preds = %1
  br label %76

13:                                               ; preds = %1
  %14 = load ptr, ptr %2, align 8
  %15 = getelementptr inbounds %struct._ir_hashtab, ptr %14, i32 0, i32 0
  %16 = load ptr, ptr %15, align 8
  %17 = load ptr, ptr %2, align 8
  %18 = getelementptr inbounds %struct._ir_hashtab, ptr %17, i32 0, i32 3
  %19 = load i32, ptr %18, align 8
  %20 = zext i32 %19 to i64
  call void @qsort(ptr noundef %16, i64 noundef %20, i64 noundef 12, ptr noundef @ir_hashtab_key_cmp)
  %21 = load ptr, ptr %2, align 8
  %22 = getelementptr inbounds %struct._ir_hashtab, ptr %21, i32 0, i32 2
  %23 = load i32, ptr %22, align 4
  %24 = call i32 @ir_hashtab_hash_size(i32 noundef %23)
  store i32 %24, ptr %4, align 4
  %25 = load ptr, ptr %2, align 8
  %26 = getelementptr inbounds %struct._ir_hashtab, ptr %25, i32 0, i32 0
  %27 = load ptr, ptr %26, align 8
  %28 = load i32, ptr %4, align 4
  %29 = zext i32 %28 to i64
  %30 = mul i64 %29, 4
  %31 = sub i64 0, %30
  %32 = getelementptr inbounds i8, ptr %27, i64 %31
  %33 = load i32, ptr %4, align 4
  %34 = zext i32 %33 to i64
  %35 = mul i64 %34, 4
  call void @llvm.memset.p0.i64(ptr align 1 %32, i8 -1, i64 %35, i1 false)
  %36 = load ptr, ptr %2, align 8
  %37 = getelementptr inbounds %struct._ir_hashtab, ptr %36, i32 0, i32 3
  %38 = load i32, ptr %37, align 8
  store i32 %38, ptr %6, align 4
  store i32 0, ptr %5, align 4
  %39 = load ptr, ptr %2, align 8
  %40 = getelementptr inbounds %struct._ir_hashtab, ptr %39, i32 0, i32 0
  %41 = load ptr, ptr %40, align 8
  store ptr %41, ptr %3, align 8
  br label %42

42:                                               ; preds = %72, %13
  %43 = load ptr, ptr %3, align 8
  %44 = getelementptr inbounds %struct._ir_hashtab_bucket, ptr %43, i32 0, i32 0
  %45 = load i32, ptr %44, align 4
  %46 = load ptr, ptr %2, align 8
  %47 = getelementptr inbounds %struct._ir_hashtab, ptr %46, i32 0, i32 1
  %48 = load i32, ptr %47, align 8
  %49 = or i32 %45, %48
  store i32 %49, ptr %7, align 4
  %50 = load ptr, ptr %2, align 8
  %51 = getelementptr inbounds %struct._ir_hashtab, ptr %50, i32 0, i32 0
  %52 = load ptr, ptr %51, align 8
  %53 = load i32, ptr %7, align 4
  %54 = sext i32 %53 to i64
  %55 = getelementptr inbounds i32, ptr %52, i64 %54
  %56 = load i32, ptr %55, align 4
  %57 = load ptr, ptr %3, align 8
  %58 = getelementptr inbounds %struct._ir_hashtab_bucket, ptr %57, i32 0, i32 2
  store i32 %56, ptr %58, align 4
  %59 = load i32, ptr %5, align 4
  %60 = load ptr, ptr %2, align 8
  %61 = getelementptr inbounds %struct._ir_hashtab, ptr %60, i32 0, i32 0
  %62 = load ptr, ptr %61, align 8
  %63 = load i32, ptr %7, align 4
  %64 = sext i32 %63 to i64
  %65 = getelementptr inbounds i32, ptr %62, i64 %64
  store i32 %59, ptr %65, align 4
  %66 = load i32, ptr %5, align 4
  %67 = zext i32 %66 to i64
  %68 = add i64 %67, 12
  %69 = trunc i64 %68 to i32
  store i32 %69, ptr %5, align 4
  %70 = load ptr, ptr %3, align 8
  %71 = getelementptr inbounds %struct._ir_hashtab_bucket, ptr %70, i32 1
  store ptr %71, ptr %3, align 8
  br label %72

72:                                               ; preds = %42
  %73 = load i32, ptr %6, align 4
  %74 = add i32 %73, -1
  store i32 %74, ptr %6, align 4
  %75 = icmp ne i32 %74, 0
  br i1 %75, label %42, label %76

76:                                               ; preds = %72, %12
  ret void
}