; Function Attrs: nofree nounwind uwtable
define hidden void @ir_hashtab_key_sort(ptr nocapture noundef readonly %0) local_unnamed_addr #2 {
  %2 = getelementptr inbounds i8, ptr %0, i64 16
  %3 = load i32, ptr %2, align 8
  %.not = icmp eq i32 %3, 0
  br i1 %.not, label %.loopexit, label %4

4:                                                ; preds = %1
  %5 = load ptr, ptr %0, align 8
  %6 = zext i32 %3 to i64
  tail call void @qsort(ptr noundef %5, i64 noundef %6, i64 noundef 12, ptr noundef nonnull @ir_hashtab_key_cmp) #20
  %7 = getelementptr inbounds i8, ptr %0, i64 12
  %8 = load i32, ptr %7, align 4
  %9 = add i32 %8, -1
  %10 = lshr i32 %9, 1
  %11 = or i32 %10, %9
  %12 = lshr i32 %11, 2
  %13 = or i32 %12, %11
  %14 = lshr i32 %13, 4
  %15 = or i32 %14, %13
  %16 = lshr i32 %15, 8
  %17 = or i32 %16, %15
  %18 = lshr i32 %17, 16
  %19 = or i32 %18, %17
  %20 = add i32 %19, 1
  %21 = tail call i32 @llvm.umax.i32(i32 %20, i32 4)
  %22 = load ptr, ptr %0, align 8
  %23 = zext i32 %21 to i64
  %24 = shl nuw nsw i64 %23, 2
  %25 = sub nsw i64 0, %24
  %26 = getelementptr inbounds i8, ptr %22, i64 %25
  tail call void @llvm.memset.p0.i64(ptr noundef nonnull align 1 dereferenceable(1) %26, i8 -1, i64 %24, i1 false)
  %27 = load i32, ptr %2, align 8
  %28 = load ptr, ptr %0, align 8
  %29 = getelementptr inbounds i8, ptr %0, i64 8
  br label %30

30:                                               ; preds = %30, %4
  %.020 = phi i32 [ 0, %4 ], [ %41, %30 ]
  %.019 = phi i32 [ %27, %4 ], [ %43, %30 ]
  %.0 = phi ptr [ %28, %4 ], [ %42, %30 ]
  %31 = load i32, ptr %.0, align 4
  %32 = load i32, ptr %29, align 8
  %33 = or i32 %32, %31
  %34 = load ptr, ptr %0, align 8
  %35 = sext i32 %33 to i64
  %36 = getelementptr inbounds i32, ptr %34, i64 %35
  %37 = load i32, ptr %36, align 4
  %38 = getelementptr inbounds i8, ptr %.0, i64 8
  store i32 %37, ptr %38, align 4
  %39 = load ptr, ptr %0, align 8
  %40 = getelementptr inbounds i32, ptr %39, i64 %35
  store i32 %.020, ptr %40, align 4
  %41 = add i32 %.020, 12
  %42 = getelementptr inbounds i8, ptr %.0, i64 12
  %43 = add i32 %.019, -1
  %.not22 = icmp eq i32 %43, 0
  br i1 %.not22, label %.loopexit, label %30

.loopexit:                                        ; preds = %30, %1
  ret void
}